target datalayout = "e-m:e-p270:32:32-p271:32:32-p272:64:64-i64:64-i128:128-f80:128-n8:16:32:64-S128"
target triple = "x86_64-pc-linux-gnu"

%struct.AVBSFContext = type { ptr, ptr, ptr, ptr, ptr, %struct.AVRational, %struct.AVRational }
%struct.AVRational = type { i32, i32 }
%struct.anon = type { i32, ptr }
%struct.AVCodecParameters = type { i32, i32, i32, ptr, i32, ptr, i32, i32, i64, i32, i32, i32, i32, i32, i32, %struct.AVRational, %struct.AVRational, i32, i32, i32, i32, i32, i32, i32, %struct.AVChannelLayout, i32, i32, i32, i32, i32, i32 }
%struct.AVChannelLayout = type { i32, i32, %union.anon.0, ptr }
%union.anon.0 = type { i64 }
%struct.ExtractExtradataContext = type { ptr, ptr, %struct.AV1Packet, %struct.H2645Packet, i32 }
%struct.AV1Packet = type { ptr, i32, i32, i32 }
%struct.H2645Packet = type { ptr, %struct.H2645RBSP, i32, i32, i32 }
%struct.H2645RBSP = type { ptr, ptr, i32, i32 }

; Function Attrs: nounwind uwtable
define internal i32 @extract_extradata_init(ptr noundef %0) #0 {
  %2 = alloca i32, align 4
  %3 = alloca ptr, align 8
  %4 = alloca ptr, align 8
  %5 = alloca i32, align 4
  %6 = alloca i32, align 4
  store ptr %0, ptr %3, align 8, !tbaa !4
  call void @llvm.lifetime.start.p0(i64 8, ptr %4) #9
  %7 = load ptr, ptr %3, align 8, !tbaa !4
  %8 = getelementptr inbounds nuw %struct.AVBSFContext, ptr %7, i32 0, i32 2
  %9 = load ptr, ptr %8, align 8, !tbaa !9
  store ptr %9, ptr %4, align 8, !tbaa !16
  call void @llvm.lifetime.start.p0(i64 4, ptr %5) #9
  store i32 0, ptr %5, align 4, !tbaa !18
  br label %10

10:                                               ; preds = %35, %1
  %11 = load i32, ptr %5, align 4, !tbaa !18
  %12 = sext i32 %11 to i64
  %13 = icmp ult i64 %12, 11
  br i1 %13, label %14, label %38

14:                                               ; preds = %10
  %15 = load i32, ptr %5, align 4, !tbaa !18
  %16 = sext i32 %15 to i64
  %17 = getelementptr inbounds [11 x %struct.anon], ptr @extract_tab, i64 0, i64 %16
  %18 = getelementptr inbounds nuw %struct.anon, ptr %17, i32 0, i32 0
  %19 = load i32, ptr %18, align 16, !tbaa !19
  %20 = load ptr, ptr %3, align 8, !tbaa !4
  %21 = getelementptr inbounds nuw %struct.AVBSFContext, ptr %20, i32 0, i32 3
  %22 = load ptr, ptr %21, align 8, !tbaa !21
  %23 = getelementptr inbounds nuw %struct.AVCodecParameters, ptr %22, i32 0, i32 1
  %24 = load i32, ptr %23, align 4, !tbaa !22
  %25 = icmp eq i32 %19, %24
  br i1 %25, label %26, label %34

26:                                               ; preds = %14
  %27 = load i32, ptr %5, align 4, !tbaa !18
  %28 = sext i32 %27 to i64
  %29 = getelementptr inbounds [11 x %struct.anon], ptr @extract_tab, i64 0, i64 %28
  %30 = getelementptr inbounds nuw %struct.anon, ptr %29, i32 0, i32 1
  %31 = load ptr, ptr %30, align 8, !tbaa !28
  %32 = load ptr, ptr %4, align 8, !tbaa !16
  %33 = getelementptr inbounds nuw %struct.ExtractExtradataContext, ptr %32, i32 0, i32 1
  store ptr %31, ptr %33, align 8, !tbaa !29
  br label %38

34:                                               ; preds = %14
  br label %35

35:                                               ; preds = %34
  %36 = load i32, ptr %5, align 4, !tbaa !18
  %37 = add nsw i32 %36, 1
  store i32 %37, ptr %5, align 4, !tbaa !18
  br label %10, !llvm.loop !37

38:                                               ; preds = %26, %10
  %39 = load ptr, ptr %4, align 8, !tbaa !16
  %40 = getelementptr inbounds nuw %struct.ExtractExtradataContext, ptr %39, i32 0, i32 1
  %41 = load ptr, ptr %40, align 8, !tbaa !29
  %42 = icmp ne ptr %41, null
  br i1 %42, label %44, label %43

43:                                               ; preds = %38
  store i32 -558323010, ptr %2, align 4
  store i32 1, ptr %6, align 4
  br label %45

44:                                               ; preds = %38
  store i32 0, ptr %2, align 4
  store i32 1, ptr %6, align 4
  br label %45

45:                                               ; preds = %44, %43
  call void @llvm.lifetime.end.p0(i64 4, ptr %5) #9
  call void @llvm.lifetime.end.p0(i64 8, ptr %4) #9
  %46 = load i32, ptr %2, align 4
  ret i32 %46
}