; Function Attrs: nofree norecurse nosync nounwind memory(readwrite, inaccessiblemem: none) uwtable
define internal range(i32 -558323010, 1) i32 @extract_extradata_init(ptr noundef readonly captures(none) %0) #0 {
  %2 = getelementptr inbounds nuw i8, ptr %0, i64 16
  %3 = load ptr, ptr %2, align 8, !tbaa !4
  %4 = getelementptr inbounds nuw i8, ptr %0, i64 24
  %5 = load ptr, ptr %4, align 8, !tbaa !14
  %6 = getelementptr inbounds nuw i8, ptr %5, i64 4
  %7 = load i32, ptr %6, align 4, !tbaa !15
  br label %9

8:                                                ; preds = %9
  %indvars.iv.next = add nuw nsw i64 %indvars.iv, 1
  %exitcond.not = icmp eq i64 %indvars.iv.next, 11
  br i1 %exitcond.not, label %.loopexit.loopexit, label %9, !llvm.loop !21

9:                                                ; preds = %1, %8
  %indvars.iv = phi i64 [ 0, %1 ], [ %indvars.iv.next, %8 ]
  %10 = getelementptr inbounds nuw [11 x %struct.anon], ptr @extract_tab, i64 0, i64 %indvars.iv
  %11 = load i32, ptr %10, align 16, !tbaa !23
  %12 = icmp eq i32 %11, %7
  br i1 %12, label %13, label %8

13:                                               ; preds = %9
  %14 = getelementptr inbounds nuw i8, ptr %10, i64 8
  %15 = load ptr, ptr %14, align 8, !tbaa !25
  %16 = getelementptr inbounds nuw i8, ptr %3, i64 8
  store ptr %15, ptr %16, align 8, !tbaa !26
  br label %.loopexit

.loopexit.loopexit:                               ; preds = %8
  %.phi.trans.insert = getelementptr inbounds nuw i8, ptr %3, i64 8
  %.pre = load ptr, ptr %.phi.trans.insert, align 8, !tbaa !26
  br label %.loopexit

.loopexit:                                        ; preds = %.loopexit.loopexit, %13
  %17 = phi ptr [ %.pre, %.loopexit.loopexit ], [ %15, %13 ]
  %.not = icmp eq ptr %17, null
  %. = select i1 %.not, i32 -558323010, i32 0
  ret i32 %.
}